target datalayout = "e-m:e-p270:32:32-p271:32:32-p272:64:64-i64:64-i128:128-f80:128-n8:16:32:64-S128"
target triple = "x86_64-pc-linux-gnu"

%"class.std::optional" = type { %"struct.std::_Optional_base" }
%"struct.std::_Optional_base" = type { %"struct.std::_Optional_payload" }
%"struct.std::_Optional_payload" = type { %"struct.std::_Optional_payload_base.base", [7 x i8] }
%"struct.std::_Optional_payload_base.base" = type <{ %"union.std::_Optional_payload_base<blst_p1_affine>::_Storage", i8 }>
%"union.std::_Optional_payload_base<blst_p1_affine>::_Storage" = type { %struct.blst_p1_affine }
%struct.blst_p1_affine = type { %struct.blst_fp, %struct.blst_fp }
%struct.blst_fp = type { [6 x i64] }
%struct.blst_p1 = type { %struct.blst_fp, %struct.blst_fp, %struct.blst_fp }
%struct.blst_scalar = type { [32 x i8] }
%"struct.std::_Optional_payload_base" = type <{ %"union.std::_Optional_payload_base<blst_p1_affine>::_Storage", i8, [7 x i8] }>

; Function Attrs: mustprogress nounwind uwtable
define linkonce_odr hidden noundef nonnull align 8 dereferenceable(96) ptr @_ZNKSt22_Optional_payload_baseI14blst_p1_affineE6_M_getEv(ptr noundef nonnull align 8 dereferenceable(97) %0) #0 comdat align 2 {
  %2 = alloca ptr, align 8
  store ptr %0, ptr %2, align 8, !tbaa !84
  %3 = load ptr, ptr %2, align 8
  %4 = getelementptr inbounds nuw %"struct.std::_Optional_payload_base", ptr %3, i32 0, i32 0
  ret ptr %4
}

; Function Attrs: mustprogress nounwind uwtable
define linkonce_odr hidden noundef nonnull align 8 dereferenceable(96) ptr @_ZNKSt19_Optional_base_implI14blst_p1_affineSt14_Optional_baseIS0_Lb1ELb1EEE6_M_getEv(ptr noundef nonnull align 1 dereferenceable(1) %0) #0 comdat align 2 {
  %2 = alloca ptr, align 8
  store ptr %0, ptr %2, align 8, !tbaa !91
  %3 = load ptr, ptr %2, align 8
  %4 = getelementptr inbounds nuw %"struct.std::_Optional_base", ptr %3, i32 0, i32 0
  %5 = call noundef nonnull align 8 dereferenceable(96) ptr @_ZNKSt22_Optional_payload_baseI14blst_p1_affineE6_M_getEv(ptr noundef nonnull align 8 dereferenceable(97) %4) #14
  ret ptr %5
}

; Function Attrs: mustprogress nounwind uwtable
define linkonce_odr hidden noundef zeroext i1 @_ZNKSt19_Optional_base_implI14blst_p1_affineSt14_Optional_baseIS0_Lb1ELb1EEE13_M_is_engagedEv(ptr noundef nonnull align 1 dereferenceable(1) %0) #0 comdat align 2 {
  %2 = alloca ptr, align 8
  store ptr %0, ptr %2, align 8, !tbaa !91
  %3 = load ptr, ptr %2, align 8
  %4 = getelementptr inbounds nuw %"struct.std::_Optional_base", ptr %3, i32 0, i32 0
  %5 = getelementptr inbounds nuw %"struct.std::_Optional_payload_base", ptr %4, i32 0, i32 1
  %6 = load i8, ptr %5, align 8, !tbaa !86, !range !79, !noundef !13
  %7 = trunc i8 %6 to i1
  ret i1 %7
}

; Function Attrs: mustprogress nounwind uwtable
define internal void @_ZN6evmone6crypto3bls12_GLOBAL__N_15storeEPhRK7blst_fp(ptr noundef %0, ptr noundef nonnull align 8 dereferenceable(48) %1) #0 personality ptr @__gxx_personality_v0 {
  %3 = alloca ptr, align 8
  %4 = alloca ptr, align 8
  store ptr %0, ptr %3, align 8, !tbaa !3
  store ptr %1, ptr %4, align 8, !tbaa !12
  %5 = load ptr, ptr %3, align 8, !tbaa !3
  call void @llvm.memset.p0.i64(ptr align 1 %5, i8 0, i64 16, i1 false)
  %6 = load ptr, ptr %3, align 8, !tbaa !3
  %7 = getelementptr inbounds i8, ptr %6, i64 16
  %8 = load ptr, ptr %4, align 8, !tbaa !12, !nonnull !13, !align !14
  invoke void @blst_bendian_from_fp(ptr noundef %7, ptr noundef %8)
          to label %9 unwind label %10

9:                                                ; preds = %2
  ret void

10:                                               ; preds = %2
  %11 = landingpad { ptr, i32 }
          catch ptr null
  %12 = extractvalue { ptr, i32 } %11, 0
  call void @__clang_call_terminate(ptr %12) #15
  unreachable
}

; Function Attrs: mustprogress nounwind uwtable
define linkonce_odr hidden noundef nonnull align 8 dereferenceable(96) ptr @_ZNKRSt8optionalI14blst_p1_affineEdeEv(ptr noundef nonnull align 8 dereferenceable(104) %0) #0 comdat align 2 {
  %2 = alloca ptr, align 8
  store ptr %0, ptr %2, align 8, !tbaa !10
  %3 = load ptr, ptr %2, align 8
  %4 = call noundef nonnull align 8 dereferenceable(96) ptr @_ZNKSt19_Optional_base_implI14blst_p1_affineSt14_Optional_baseIS0_Lb1ELb1EEE6_M_getEv(ptr noundef nonnull align 1 dereferenceable(1) %3) #14
  ret ptr %4
}

; Function Attrs: mustprogress nounwind uwtable
define linkonce_odr hidden noundef zeroext i1 @_ZNKSt8optionalI14blst_p1_affineE9has_valueEv(ptr noundef nonnull align 8 dereferenceable(104) %0) #0 comdat align 2 {
  %2 = alloca ptr, align 8
  store ptr %0, ptr %2, align 8, !tbaa !10
  %3 = load ptr, ptr %2, align 8
  %4 = call noundef zeroext i1 @_ZNKSt19_Optional_base_implI14blst_p1_affineSt14_Optional_baseIS0_Lb1ELb1EEE13_M_is_engagedEv(ptr noundef nonnull align 1 dereferenceable(1) %3) #14
  ret i1 %4
}

; Function Attrs: mustprogress nounwind uwtable
define hidden noundef zeroext i1 @_ZN6evmone6crypto3bls6g1_mulEPhS2_PKhS4_S4_(ptr noundef %0, ptr noundef %1, ptr noundef %2, ptr noundef %3, ptr noundef %4) #0 personality ptr @__gxx_personality_v0 {
  %6 = alloca i1, align 1
  %7 = alloca ptr, align 8
  %8 = alloca ptr, align 8
  %9 = alloca ptr, align 8
  %10 = alloca ptr, align 8
  %11 = alloca ptr, align 8
  %12 = alloca %struct.blst_scalar, align 1
  %13 = alloca %"class.std::optional", align 8
  %14 = alloca i32, align 4
  %15 = alloca %struct.blst_p1, align 8
  %16 = alloca %struct.blst_p1, align 8
  %17 = alloca %struct.blst_p1_affine, align 8
  store ptr %0, ptr %7, align 8, !tbaa !3
  store ptr %1, ptr %8, align 8, !tbaa !3
  store ptr %2, ptr %9, align 8, !tbaa !3
  store ptr %3, ptr %10, align 8, !tbaa !3
  store ptr %4, ptr %11, align 8, !tbaa !3
  call void @llvm.lifetime.start.p0(ptr %12) #14
  %18 = load ptr, ptr %11, align 8, !tbaa !3
  invoke void @blst_scalar_from_bendian(ptr noundef %12, ptr noundef %18)
          to label %19 unwind label %43

19:                                               ; preds = %5
  call void @llvm.lifetime.start.p0(ptr %13) #14
  %20 = load ptr, ptr %9, align 8, !tbaa !3
  %21 = load ptr, ptr %10, align 8, !tbaa !3
  call void @_ZN6evmone6crypto3bls12_GLOBAL__N_111validate_p1EPKhS4_(ptr dead_on_unwind writable sret(%"class.std::optional") align 8 %13, ptr noundef %20, ptr noundef %21) #14
  %22 = call noundef zeroext i1 @_ZNKSt8optionalI14blst_p1_affineE9has_valueEv(ptr noundef nonnull align 8 dereferenceable(104) %13) #14
  br i1 %22, label %24, label %23

23:                                               ; preds = %19
  store i1 false, ptr %6, align 1
  store i32 1, ptr %14, align 4
  br label %41

24:                                               ; preds = %19
  call void @llvm.lifetime.start.p0(ptr %15) #14
  %25 = invoke noundef nonnull align 8 dereferenceable(96) ptr @_ZNKRSt8optionalI14blst_p1_affineEdeEv(ptr noundef nonnull align 8 dereferenceable(104) %13)
          to label %26 unwind label %43

26:                                               ; preds = %24
  invoke void @blst_p1_from_affine(ptr noundef %15, ptr noundef %25)
          to label %27 unwind label %43

27:                                               ; preds = %26
  %28 = invoke zeroext i1 @blst_p1_in_g1(ptr noundef %15)
          to label %29 unwind label %43

29:                                               ; preds = %27
  br i1 %28, label %31, label %30

30:                                               ; preds = %29
  store i1 false, ptr %6, align 1
  store i32 1, ptr %14, align 4
  br label %40

31:                                               ; preds = %29
  call void @llvm.lifetime.start.p0(ptr %16) #14
  %32 = getelementptr inbounds nuw %struct.blst_scalar, ptr %12, i32 0, i32 0
  %33 = getelementptr inbounds [32 x i8], ptr %32, i64 0, i64 0
  invoke void @blst_p1_mult(ptr noundef %16, ptr noundef %15, ptr noundef %33, i64 noundef 256)
          to label %34 unwind label %43

34:                                               ; preds = %31
  call void @llvm.lifetime.start.p0(ptr %17) #14
  invoke void @blst_p1_to_affine(ptr noundef %17, ptr noundef %16)
          to label %35 unwind label %43

35:                                               ; preds = %34
  %36 = load ptr, ptr %7, align 8, !tbaa !3
  %37 = getelementptr inbounds nuw %struct.blst_p1_affine, ptr %17, i32 0, i32 0
  call void @_ZN6evmone6crypto3bls12_GLOBAL__N_15storeEPhRK7blst_fp(ptr noundef %36, ptr noundef nonnull align 8 dereferenceable(48) %37) #14
  %38 = load ptr, ptr %8, align 8, !tbaa !3
  %39 = getelementptr inbounds nuw %struct.blst_p1_affine, ptr %17, i32 0, i32 1
  call void @_ZN6evmone6crypto3bls12_GLOBAL__N_15storeEPhRK7blst_fp(ptr noundef %38, ptr noundef nonnull align 8 dereferenceable(48) %39) #14
  store i1 true, ptr %6, align 1
  store i32 1, ptr %14, align 4
  call void @llvm.lifetime.end.p0(ptr %17) #14
  call void @llvm.lifetime.end.p0(ptr %16) #14
  br label %40

40:                                               ; preds = %35, %30
  call void @llvm.lifetime.end.p0(ptr %15) #14
  br label %41

41:                                               ; preds = %40, %23
  call void @llvm.lifetime.end.p0(ptr %13) #14
  call void @llvm.lifetime.end.p0(ptr %12) #14
  %42 = load i1, ptr %6, align 1
  ret i1 %42

43:                                               ; preds = %34, %31, %27, %26, %24, %5
  %44 = landingpad { ptr, i32 }
          catch ptr null
  %45 = extractvalue { ptr, i32 } %44, 0
  call void @__clang_call_terminate(ptr %45) #15
  unreachable
}