; Function Attrs: mustprogress nounwind uwtable
define hidden noundef zeroext i1 @_ZN6evmone6crypto3bls6g1_mulEPhS2_PKhS4_S4_(ptr noundef %0, ptr noundef %1, ptr noundef %2, ptr noundef %3, ptr noundef %4) local_unnamed_addr #0 personality ptr @__gxx_personality_v0 {
  %6 = alloca %struct.blst_scalar, align 1
  %7 = alloca %"class.std::optional", align 8
  %8 = alloca %struct.blst_p1, align 8
  %9 = alloca %struct.blst_p1, align 8
  %10 = alloca %struct.blst_p1_affine, align 8
  call void @llvm.lifetime.start.p0(ptr nonnull %6) #14
  invoke void @blst_scalar_from_bendian(ptr noundef nonnull %6, ptr noundef %4)
          to label %11 unwind label %33

11:                                               ; preds = %5
  call void @llvm.lifetime.start.p0(ptr nonnull %7) #14
  call fastcc void @_ZN6evmone6crypto3bls12_GLOBAL__N_111validate_p1EPKhS4_(ptr dead_on_unwind noalias writable align 8 %7, ptr noundef %2, ptr noundef %3) #14
  %12 = getelementptr inbounds nuw i8, ptr %7, i64 96
  %13 = load i8, ptr %12, align 8, !tbaa !3, !range !8, !noundef !9
  %14 = trunc nuw i8 %13 to i1
  br i1 %14, label %15, label %32

15:                                               ; preds = %11
  call void @llvm.lifetime.start.p0(ptr nonnull %8) #14
  invoke void @blst_p1_from_affine(ptr noundef nonnull %8, ptr noundef nonnull %7)
          to label %16 unwind label %33

16:                                               ; preds = %15
  %17 = invoke zeroext i1 @blst_p1_in_g1(ptr noundef nonnull %8)
          to label %18 unwind label %33

18:                                               ; preds = %16
  br i1 %17, label %19, label %31

19:                                               ; preds = %18
  call void @llvm.lifetime.start.p0(ptr nonnull %9) #14
  invoke void @blst_p1_mult(ptr noundef nonnull %9, ptr noundef nonnull %8, ptr noundef nonnull %6, i64 noundef 256)
          to label %20 unwind label %33

20:                                               ; preds = %19
  call void @llvm.lifetime.start.p0(ptr nonnull %10) #14
  invoke void @blst_p1_to_affine(ptr noundef nonnull %10, ptr noundef nonnull %9)
          to label %21 unwind label %33

21:                                               ; preds = %20
  call void @llvm.memset.p0.i64(ptr noundef nonnull align 1 dereferenceable(16) %0, i8 0, i64 16, i1 false)
  %22 = getelementptr inbounds nuw i8, ptr %0, i64 16
  invoke void @blst_bendian_from_fp(ptr noundef nonnull %22, ptr noundef nonnull align 8 dereferenceable(48) %10)
          to label %_ZN6evmone6crypto3bls12_GLOBAL__N_15storeEPhRK7blst_fp.exit unwind label %23

23:                                               ; preds = %21
  %24 = landingpad { ptr, i32 }
          catch ptr null
  %25 = extractvalue { ptr, i32 } %24, 0
  call void @__clang_call_terminate(ptr %25) #15
  unreachable

_ZN6evmone6crypto3bls12_GLOBAL__N_15storeEPhRK7blst_fp.exit: ; preds = %21
  %26 = getelementptr inbounds nuw i8, ptr %10, i64 48
  call void @llvm.memset.p0.i64(ptr noundef nonnull align 1 dereferenceable(16) %1, i8 0, i64 16, i1 false)
  %27 = getelementptr inbounds nuw i8, ptr %1, i64 16
  invoke void @blst_bendian_from_fp(ptr noundef nonnull %27, ptr noundef nonnull align 8 dereferenceable(48) %26)
          to label %_ZN6evmone6crypto3bls12_GLOBAL__N_15storeEPhRK7blst_fp.exit6 unwind label %28

28:                                               ; preds = %_ZN6evmone6crypto3bls12_GLOBAL__N_15storeEPhRK7blst_fp.exit
  %29 = landingpad { ptr, i32 }
          catch ptr null
  %30 = extractvalue { ptr, i32 } %29, 0
  call void @__clang_call_terminate(ptr %30) #15
  unreachable

_ZN6evmone6crypto3bls12_GLOBAL__N_15storeEPhRK7blst_fp.exit6: ; preds = %_ZN6evmone6crypto3bls12_GLOBAL__N_15storeEPhRK7blst_fp.exit
  call void @llvm.lifetime.end.p0(ptr nonnull %10) #14
  call void @llvm.lifetime.end.p0(ptr nonnull %9) #14
  br label %31

31:                                               ; preds = %18, %_ZN6evmone6crypto3bls12_GLOBAL__N_15storeEPhRK7blst_fp.exit6
  call void @llvm.lifetime.end.p0(ptr nonnull %8) #14
  br label %32

32:                                               ; preds = %11, %31
  %.0 = phi i1 [ %17, %31 ], [ false, %11 ]
  call void @llvm.lifetime.end.p0(ptr nonnull %7) #14
  call void @llvm.lifetime.end.p0(ptr nonnull %6) #14
  ret i1 %.0

33:                                               ; preds = %20, %19, %16, %15, %5
  %34 = landingpad { ptr, i32 }
          catch ptr null
  %35 = extractvalue { ptr, i32 } %34, 0
  call void @__clang_call_terminate(ptr %35) #15
  unreachable
}